; Function Attrs: nounwind uwtable
define i32 @Aig_ManCleanup(ptr noundef %0) local_unnamed_addr #0 {
  %2 = getelementptr i8, ptr %0, i64 148
  %.val26 = load i32, ptr %2, align 4, !tbaa !35
  %3 = getelementptr i8, ptr %0, i64 152
  %.val27 = load i32, ptr %3, align 8, !tbaa !35
  %4 = tail call noalias dereferenceable_or_null(16) ptr @malloc(i64 noundef 16) #18
  %5 = getelementptr inbounds nuw i8, ptr %4, i64 4
  store i32 0, ptr %5, align 4, !tbaa !21
  store i32 100, ptr %4, align 8, !tbaa !23
  %6 = tail call noalias dereferenceable_or_null(800) ptr @malloc(i64 noundef 800) #18
  %7 = getelementptr inbounds nuw i8, ptr %4, i64 8
  store ptr %6, ptr %7, align 8, !tbaa !24
  %8 = getelementptr inbounds nuw i8, ptr %0, i64 32
  %9 = load ptr, ptr %8, align 8, !tbaa !27
  %10 = getelementptr i8, ptr %9, i64 4
  %.val2333 = load i32, ptr %10, align 4, !tbaa !21
  %11 = icmp sgt i32 %.val2333, 0
  br i1 %11, label %.lr.ph, label %.critedge2

.critedge.preheader:                              ; preds = %53
  %.pre42.pre = load ptr, ptr %7, align 8, !tbaa !24
  %12 = icmp sgt i32 %56, 0
  br i1 %12, label %.lr.ph36, label %.critedge2

.lr.ph36:                                         ; preds = %.critedge.preheader
  %wide.trip.count = zext nneg i32 %56 to i64
  br label %.critedge

.lr.ph:                                           ; preds = %1, %53
  %13 = phi ptr [ %54, %53 ], [ %9, %1 ]
  %14 = phi i32 [ %55, %53 ], [ 100, %1 ]
  %15 = phi i32 [ %56, %53 ], [ 0, %1 ]
  %indvars.iv = phi i64 [ %indvars.iv.next, %53 ], [ 0, %1 ]
  %16 = getelementptr i8, ptr %13, i64 8
  %.val25 = load ptr, ptr %16, align 8, !tbaa !24
  %17 = getelementptr inbounds nuw ptr, ptr %.val25, i64 %indvars.iv
  %18 = load ptr, ptr %17, align 8, !tbaa !33
  %19 = icmp eq ptr %18, null
  br i1 %19, label %53, label %20

20:                                               ; preds = %.lr.ph
  %21 = getelementptr i8, ptr %18, i64 24
  %.val30 = load i64, ptr %21, align 8
  %22 = trunc i64 %.val30 to i32
  %23 = and i32 %22, 7
  %24 = add nsw i32 %23, -5
  %narrow.i = icmp ult i32 %24, 2
  %25 = icmp ult i32 %22, 64
  %or.cond = and i1 %25, %narrow.i
  br i1 %or.cond, label %26, label %53

26:                                               ; preds = %20
  %27 = icmp eq i32 %15, %14
  br i1 %27, label %28, label %.Vec_PtrGrow.exit11_crit_edge.i

.Vec_PtrGrow.exit11_crit_edge.i:                  ; preds = %26
  %.pre.i = load ptr, ptr %7, align 8, !tbaa !24
  br label %Vec_PtrPush.exit

28:                                               ; preds = %26
  %29 = icmp slt i32 %14, 16
  br i1 %29, label %30, label %37

30:                                               ; preds = %28
  %31 = load ptr, ptr %7, align 8, !tbaa !24
  %.not9.i.i = icmp eq ptr %31, null
  br i1 %.not9.i.i, label %34, label %32

32:                                               ; preds = %30
  %33 = tail call dereferenceable_or_null(128) ptr @realloc(ptr noundef nonnull %31, i64 noundef 128) #20
  br label %Vec_PtrGrow.exit.i

34:                                               ; preds = %30
  %35 = tail call noalias dereferenceable_or_null(128) ptr @malloc(i64 noundef 128) #18
  br label %Vec_PtrGrow.exit.i

Vec_PtrGrow.exit.i:                               ; preds = %34, %32
  %36 = phi ptr [ %33, %32 ], [ %35, %34 ]
  store ptr %36, ptr %7, align 8, !tbaa !24
  store i32 16, ptr %4, align 8, !tbaa !23
  br label %Vec_PtrPush.exit

37:                                               ; preds = %28
  %38 = shl nuw nsw i32 %14, 1
  %39 = load ptr, ptr %7, align 8, !tbaa !24
  %.not9.i10.i = icmp eq ptr %39, null
  %40 = zext nneg i32 %38 to i64
  %41 = shl nuw nsw i64 %40, 3
  br i1 %.not9.i10.i, label %44, label %42

42:                                               ; preds = %37
  %43 = tail call ptr @realloc(ptr noundef nonnull %39, i64 noundef %41) #20
  br label %46

44:                                               ; preds = %37
  %45 = tail call noalias ptr @malloc(i64 noundef %41) #18
  br label %46

46:                                               ; preds = %44, %42
  %47 = phi ptr [ %43, %42 ], [ %45, %44 ]
  store ptr %47, ptr %7, align 8, !tbaa !24
  store i32 %38, ptr %4, align 8, !tbaa !23
  br label %Vec_PtrPush.exit

Vec_PtrPush.exit:                                 ; preds = %.Vec_PtrGrow.exit11_crit_edge.i, %Vec_PtrGrow.exit.i, %46
  %48 = phi i32 [ %14, %.Vec_PtrGrow.exit11_crit_edge.i ], [ %38, %46 ], [ 16, %Vec_PtrGrow.exit.i ]
  %49 = phi ptr [ %.pre.i, %.Vec_PtrGrow.exit11_crit_edge.i ], [ %47, %46 ], [ %36, %Vec_PtrGrow.exit.i ]
  %50 = add nsw i32 %15, 1
  store i32 %50, ptr %5, align 4, !tbaa !21
  %51 = sext i32 %15 to i64
  %52 = getelementptr inbounds ptr, ptr %49, i64 %51
  store ptr %18, ptr %52, align 8, !tbaa !33
  %.pre = load ptr, ptr %8, align 8, !tbaa !27
  br label %53

53:                                               ; preds = %.lr.ph, %Vec_PtrPush.exit, %20
  %54 = phi ptr [ %13, %.lr.ph ], [ %.pre, %Vec_PtrPush.exit ], [ %13, %20 ]
  %55 = phi i32 [ %14, %.lr.ph ], [ %48, %Vec_PtrPush.exit ], [ %14, %20 ]
  %56 = phi i32 [ %15, %.lr.ph ], [ %50, %Vec_PtrPush.exit ], [ %15, %20 ]
  %indvars.iv.next = add nuw nsw i64 %indvars.iv, 1
  %57 = getelementptr i8, ptr %54, i64 4
  %.val23 = load i32, ptr %57, align 4, !tbaa !21
  %58 = sext i32 %.val23 to i64
  %59 = icmp slt i64 %indvars.iv.next, %58
  br i1 %59, label %.lr.ph, label %.critedge.preheader, !llvm.loop !76

.critedge:                                        ; preds = %.lr.ph36, %.critedge
  %indvars.iv38 = phi i64 [ 0, %.lr.ph36 ], [ %indvars.iv.next39, %.critedge ]
  %60 = getelementptr inbounds nuw ptr, ptr %.pre42.pre, i64 %indvars.iv38
  %61 = load ptr, ptr %60, align 8, !tbaa !33
  tail call void @Aig_ObjDelete_rec(ptr noundef %0, ptr noundef %61, i32 noundef 1) #19
  %indvars.iv.next39 = add nuw nsw i64 %indvars.iv38, 1
  %exitcond.not = icmp eq i64 %indvars.iv.next39, %wide.trip.count
  br i1 %exitcond.not, label %.critedge2.thread, label %.critedge, !llvm.loop !77

.critedge2:                                       ; preds = %1, %.critedge.preheader
  %.pre4246 = phi ptr [ %.pre42.pre, %.critedge.preheader ], [ %6, %1 ]
  %.not.i = icmp eq ptr %.pre4246, null
  br i1 %.not.i, label %Vec_PtrFree.exit, label %.critedge2.thread

.critedge2.thread:                                ; preds = %.critedge, %.critedge2
  %.pre424649 = phi ptr [ %.pre4246, %.critedge2 ], [ %.pre42.pre, %.critedge ]
  tail call void @free(ptr noundef nonnull %.pre424649) #19
  br label %Vec_PtrFree.exit

Vec_PtrFree.exit:                                 ; preds = %.critedge2, %.critedge2.thread
  tail call void @free(ptr noundef nonnull %4) #19
  %.val28 = load i32, ptr %2, align 4, !tbaa !35
  %.val29 = load i32, ptr %3, align 8, !tbaa !35
  %.neg = add i32 %.val27, %.val26
  %62 = add i32 %.val28, %.val29
  %63 = sub i32 %.neg, %62
  ret i32 %63
}